target datalayout = "e-m:e-p270:32:32-p271:32:32-p272:64:64-i64:64-i128:128-f80:128-n8:16:32:64-S128"
target triple = "x86_64-pc-linux-gnu"

%union.pthread_mutex_t = type { %struct.__pthread_mutex_s }
%struct.__pthread_mutex_s = type { i32, i32, i32, i32, i32, i16, i16, %struct.__pthread_internal_list }
%struct.__pthread_internal_list = type { ptr, ptr }
%struct.ma_event = type { i32, %union.pthread_mutex_t, %union.pthread_cond_t }
%union.pthread_cond_t = type { %struct.__pthread_cond_s }
%struct.__pthread_cond_s = type { %union.__atomic_wide_counter, %union.__atomic_wide_counter, [2 x i32], [2 x i32], i32, i32, [2 x i32] }
%union.__atomic_wide_counter = type { i64 }

; Function Attrs: nounwind uwtable
define internal i32 @ma_event_wait__posix(ptr noundef %0) #0 {
  %2 = alloca ptr, align 8
  store ptr %0, ptr %2, align 8, !tbaa !25
  %3 = load ptr, ptr %2, align 8, !tbaa !25
  %4 = getelementptr inbounds nuw %struct.ma_event, ptr %3, i32 0, i32 1
  %5 = call i32 @pthread_mutex_lock(ptr noundef %4) #16
  br label %6

6:                                                ; preds = %11, %1
  %7 = load ptr, ptr %2, align 8, !tbaa !25
  %8 = getelementptr inbounds nuw %struct.ma_event, ptr %7, i32 0, i32 0
  %9 = load i32, ptr %8, align 8, !tbaa !50
  %10 = icmp eq i32 %9, 0
  br i1 %10, label %11, label %17

11:                                               ; preds = %6
  %12 = load ptr, ptr %2, align 8, !tbaa !25
  %13 = getelementptr inbounds nuw %struct.ma_event, ptr %12, i32 0, i32 2
  %14 = load ptr, ptr %2, align 8, !tbaa !25
  %15 = getelementptr inbounds nuw %struct.ma_event, ptr %14, i32 0, i32 1
  %16 = call i32 @pthread_cond_wait(ptr noundef %13, ptr noundef %15)
  br label %6, !llvm.loop !52

17:                                               ; preds = %6
  %18 = load ptr, ptr %2, align 8, !tbaa !25
  %19 = getelementptr inbounds nuw %struct.ma_event, ptr %18, i32 0, i32 0
  store i32 0, ptr %19, align 8, !tbaa !50
  %20 = load ptr, ptr %2, align 8, !tbaa !25
  %21 = getelementptr inbounds nuw %struct.ma_event, ptr %20, i32 0, i32 1
  %22 = call i32 @pthread_mutex_unlock(ptr noundef %21) #16
  ret i32 0
}

; Function Attrs: nounwind uwtable
define i32 @ma_event_wait(ptr noundef %0) #0 {
  %2 = alloca i32, align 4
  %3 = alloca ptr, align 8
  store ptr %0, ptr %3, align 8, !tbaa !25
  %4 = load ptr, ptr %3, align 8, !tbaa !25
  %5 = icmp eq ptr %4, null
  br i1 %5, label %6, label %7

6:                                                ; preds = %1
  store i32 -2, ptr %2, align 4
  br label %10

7:                                                ; preds = %1
  %8 = load ptr, ptr %3, align 8, !tbaa !25
  %9 = call i32 @ma_event_wait__posix(ptr noundef %8)
  store i32 %9, ptr %2, align 4
  br label %10

10:                                               ; preds = %7, %6
  %11 = load i32, ptr %2, align 4
  ret i32 %11
}