; Function Attrs: nounwind uwtable
define range(i32 -2, 1) i32 @ma_event_wait(ptr noundef %0) local_unnamed_addr #7 {
  %2 = icmp eq ptr %0, null
  br i1 %2, label %14, label %3

3:                                                ; preds = %1
  %4 = getelementptr inbounds nuw i8, ptr %0, i64 8
  %5 = tail call i32 @pthread_mutex_lock(ptr noundef nonnull %4) #69
  %6 = load i32, ptr %0, align 8, !tbaa !41
  %7 = icmp eq i32 %6, 0
  br i1 %7, label %.lr.ph.i, label %ma_event_wait__posix.exit

.lr.ph.i:                                         ; preds = %3
  %8 = getelementptr inbounds nuw i8, ptr %0, i64 48
  br label %9

9:                                                ; preds = %9, %.lr.ph.i
  %10 = tail call i32 @pthread_cond_wait(ptr noundef nonnull %8, ptr noundef nonnull %4) #69
  %11 = load i32, ptr %0, align 8, !tbaa !41
  %12 = icmp eq i32 %11, 0
  br i1 %12, label %9, label %ma_event_wait__posix.exit, !llvm.loop !43

ma_event_wait__posix.exit:                        ; preds = %9, %3
  store i32 0, ptr %0, align 8, !tbaa !41
  %13 = tail call i32 @pthread_mutex_unlock(ptr noundef nonnull %4) #69
  br label %14

14:                                               ; preds = %1, %ma_event_wait__posix.exit
  %.0 = phi i32 [ 0, %ma_event_wait__posix.exit ], [ -2, %1 ]
  ret i32 %.0
}